; Function Attrs: mustprogress uwtable
define void @_ZN2cv7GScalarC2Ev(ptr noundef nonnull writeonly align 8 captures(none) dereferenceable(16) %0) unnamed_addr #3 align 2 personality ptr @__gxx_personality_v0 {
  %2 = alloca %"class.cv::GNode", align 8
  %3 = alloca %"class.cv::util::variant.3", align 8
  %4 = tail call noalias noundef nonnull dereferenceable(184) ptr @_Znwm(i64 noundef 184) #17
  call void @llvm.lifetime.start.p0(i64 16, ptr nonnull %2) #18
  invoke void @_ZN2cv5GNode5ParamEv(ptr dead_on_unwind nonnull writable sret(%"class.cv::GNode") align 8 %2)
          to label %5 unwind label %.thread

5:                                                ; preds = %1
  store i64 0, ptr %3, align 8, !tbaa !3
  invoke void @_ZN2cv7GOriginC1ENS_6GShapeERKNS_5GNodeEmNS_4util7variantIJNS5_9monostateESt8functionIFvRNS_6detail9VectorRefEEES8_IFvRNS9_9OpaqueRefEEEEEENS9_10OpaqueKindE(ptr noundef nonnull align 8 dereferenceable(180) %4, i32 noundef 1, ptr noundef nonnull align 8 dereferenceable(16) %2, i64 noundef -1, ptr noundef nonnull %3, i32 noundef 0)
          to label %6 unwind label %54

6:                                                ; preds = %5
  store ptr %4, ptr %0, align 8, !tbaa !8
  %7 = getelementptr inbounds nuw i8, ptr %0, i64 8
  store ptr null, ptr %7, align 8, !tbaa !14
  %8 = invoke noalias noundef nonnull dereferenceable(24) ptr @_Znwm(i64 noundef 24) #17
          to label %19 unwind label %9

9:                                                ; preds = %6
  %10 = landingpad { ptr, i32 }
          catch ptr null
  %11 = extractvalue { ptr, i32 } %10, 0
  %12 = call ptr @__cxa_begin_catch(ptr %11) #18
  call void @_ZN2cv7GOriginD2Ev(ptr noundef nonnull align 8 dereferenceable(180) %4) #18
  call void @_ZdlPv(ptr noundef nonnull %4) #19
  invoke void @__cxa_rethrow() #20
          to label %18 unwind label %13

13:                                               ; preds = %9
  %14 = landingpad { ptr, i32 }
          cleanup
  invoke void @__cxa_end_catch()
          to label %.body unwind label %15

15:                                               ; preds = %13
  %16 = landingpad { ptr, i32 }
          catch ptr null
  %17 = extractvalue { ptr, i32 } %16, 0
  call void @__clang_call_terminate(ptr %17) #21
  unreachable

18:                                               ; preds = %9
  unreachable

19:                                               ; preds = %6
  %20 = getelementptr inbounds nuw i8, ptr %8, i64 8
  store i32 1, ptr %20, align 8, !tbaa !15
  %21 = getelementptr inbounds nuw i8, ptr %8, i64 12
  store i32 1, ptr %21, align 4, !tbaa !18
  store ptr getelementptr inbounds nuw inrange(-16, 40) (i8, ptr @_ZTVSt15_Sp_counted_ptrIPN2cv7GOriginELN9__gnu_cxx12_Lock_policyE2EE, i64 16), ptr %8, align 8, !tbaa !19
  %22 = getelementptr inbounds nuw i8, ptr %8, i64 16
  store ptr %4, ptr %22, align 8, !tbaa !21
  store ptr %8, ptr %7, align 8, !tbaa !14
  %23 = load i64, ptr %3, align 8, !tbaa !3
  %24 = getelementptr inbounds nuw [3 x ptr], ptr @constinit, i64 0, i64 %23
  %25 = load ptr, ptr %24, align 8, !tbaa !23
  %26 = getelementptr inbounds nuw i8, ptr %3, i64 8
  invoke void %25(ptr noundef nonnull %26)
          to label %_ZN2cv4util7variantIJNS0_9monostateESt8functionIFvRNS_6detail9VectorRefEEES3_IFvRNS4_9OpaqueRefEEEEED2Ev.exit unwind label %27

27:                                               ; preds = %19
  %28 = landingpad { ptr, i32 }
          catch ptr null
  %29 = extractvalue { ptr, i32 } %28, 0
  call void @__clang_call_terminate(ptr %29) #21
  unreachable

_ZN2cv4util7variantIJNS0_9monostateESt8functionIFvRNS_6detail9VectorRefEEES3_IFvRNS4_9OpaqueRefEEEEED2Ev.exit: ; preds = %19
  %30 = getelementptr inbounds nuw i8, ptr %2, i64 8
  %31 = load ptr, ptr %30, align 8, !tbaa !14
  %.not.i.i.i = icmp eq ptr %31, null
  br i1 %.not.i.i.i, label %_ZN2cv5GNodeD2Ev.exit, label %32

32:                                               ; preds = %_ZN2cv4util7variantIJNS0_9monostateESt8functionIFvRNS_6detail9VectorRefEEES3_IFvRNS4_9OpaqueRefEEEEED2Ev.exit
  %33 = getelementptr inbounds nuw i8, ptr %31, i64 8
  %34 = load atomic i64, ptr %33 acquire, align 8
  %35 = icmp eq i64 %34, 4294967297
  %36 = trunc i64 %34 to i32
  br i1 %35, label %37, label %45

37:                                               ; preds = %32
  store i32 0, ptr %33, align 8, !tbaa !15
  %38 = getelementptr inbounds nuw i8, ptr %31, i64 12
  store i32 0, ptr %38, align 4, !tbaa !18
  %39 = load ptr, ptr %31, align 8, !tbaa !19
  %40 = getelementptr inbounds nuw i8, ptr %39, i64 16
  %41 = load ptr, ptr %40, align 8
  call void %41(ptr noundef nonnull align 8 dereferenceable(16) %31) #18
  %42 = load ptr, ptr %31, align 8, !tbaa !19
  %43 = getelementptr inbounds nuw i8, ptr %42, i64 24
  %44 = load ptr, ptr %43, align 8
  call void %44(ptr noundef nonnull align 8 dereferenceable(16) %31) #18
  br label %_ZN2cv5GNodeD2Ev.exit

45:                                               ; preds = %32
  %46 = load i8, ptr @__libc_single_threaded, align 1, !tbaa !24
  %.not.i.i.i.i = icmp eq i8 %46, 0
  br i1 %.not.i.i.i.i, label %49, label %47

47:                                               ; preds = %45
  %48 = add nsw i32 %36, -1
  store i32 %48, ptr %33, align 4, !tbaa !25
  br label %_ZN9__gnu_cxx27__exchange_and_add_dispatchEPii.exit.i.i.i.i

49:                                               ; preds = %45
  %50 = atomicrmw volatile add ptr %33, i32 -1 acq_rel, align 4
  br label %_ZN9__gnu_cxx27__exchange_and_add_dispatchEPii.exit.i.i.i.i

_ZN9__gnu_cxx27__exchange_and_add_dispatchEPii.exit.i.i.i.i: ; preds = %49, %47
  %.0.i.i.i.i.i = phi i32 [ %36, %47 ], [ %50, %49 ]
  %51 = icmp eq i32 %.0.i.i.i.i.i, 1
  br i1 %51, label %52, label %_ZN2cv5GNodeD2Ev.exit, !prof !26

52:                                               ; preds = %_ZN9__gnu_cxx27__exchange_and_add_dispatchEPii.exit.i.i.i.i
  call void @_ZNSt16_Sp_counted_baseILN9__gnu_cxx12_Lock_policyE2EE24_M_release_last_use_coldEv(ptr noundef nonnull align 8 dereferenceable(16) %31) #18
  br label %_ZN2cv5GNodeD2Ev.exit

_ZN2cv5GNodeD2Ev.exit:                            ; preds = %_ZN2cv4util7variantIJNS0_9monostateESt8functionIFvRNS_6detail9VectorRefEEES3_IFvRNS4_9OpaqueRefEEEEED2Ev.exit, %37, %_ZN9__gnu_cxx27__exchange_and_add_dispatchEPii.exit.i.i.i.i, %52
  call void @llvm.lifetime.end.p0(i64 16, ptr nonnull %2) #18
  ret void

.thread:                                          ; preds = %1
  %53 = landingpad { ptr, i32 }
          cleanup
  call void @llvm.lifetime.end.p0(i64 16, ptr nonnull %2) #18
  br label %64

54:                                               ; preds = %5
  %55 = landingpad { ptr, i32 }
          cleanup
  br label %.body

.body:                                            ; preds = %13, %54
  %.0.lpad-body = phi i1 [ true, %54 ], [ false, %13 ]
  %eh.lpad-body = phi { ptr, i32 } [ %55, %54 ], [ %14, %13 ]
  %56 = load i64, ptr %3, align 8, !tbaa !3
  %57 = getelementptr inbounds nuw [3 x ptr], ptr @constinit, i64 0, i64 %56
  %58 = load ptr, ptr %57, align 8, !tbaa !23
  %59 = getelementptr inbounds nuw i8, ptr %3, i64 8
  invoke void %58(ptr noundef nonnull %59)
          to label %63 unwind label %60

60:                                               ; preds = %.body
  %61 = landingpad { ptr, i32 }
          catch ptr null
  %62 = extractvalue { ptr, i32 } %61, 0
  call void @__clang_call_terminate(ptr %62) #21
  unreachable

63:                                               ; preds = %.body
  call void @_ZN2cv5GNodeD2Ev(ptr noundef nonnull align 8 dereferenceable(16) %2) #18
  call void @llvm.lifetime.end.p0(i64 16, ptr nonnull %2) #18
  br i1 %.0.lpad-body, label %64, label %65

64:                                               ; preds = %.thread, %63
  %.pn10 = phi { ptr, i32 } [ %53, %.thread ], [ %eh.lpad-body, %63 ]
  call void @_ZdlPv(ptr noundef nonnull %4) #19
  br label %65

65:                                               ; preds = %63, %64
  %.pn9 = phi { ptr, i32 } [ %eh.lpad-body, %63 ], [ %.pn10, %64 ]
  resume { ptr, i32 } %.pn9
}